; Function Attrs: mustprogress nofree nounwind memory(readwrite, inaccessiblemem: read) uwtable
define noundef ptr @_ZNK8tinyxml210XMLElement13FindAttributeEPKc(ptr noundef nonnull readonly align 8 captures(none) dereferenceable(120) %0, ptr noundef readonly captures(address) %1) local_unnamed_addr #9 align 2 {
  %3 = getelementptr inbounds nuw i8, ptr %0, i64 112
  %.0710 = load ptr, ptr %3, align 8, !tbaa !103
  %.not11 = icmp eq ptr %.0710, null
  br i1 %.not11, label %_ZN8tinyxml27XMLUtil11StringEqualEPKcS2_i.exit.thread, label %.lr.ph

.lr.ph:                                           ; preds = %2, %9
  %.0712 = phi ptr [ %.07, %9 ], [ %.0710, %2 ]
  %4 = getelementptr inbounds nuw i8, ptr %.0712, i64 8
  %5 = tail call noundef ptr @_ZN8tinyxml27StrPair6GetStrEv(ptr noundef nonnull align 8 dereferenceable(24) %4)
  %6 = icmp eq ptr %5, %1
  br i1 %6, label %_ZN8tinyxml27XMLUtil11StringEqualEPKcS2_i.exit.thread, label %_ZN8tinyxml27XMLUtil11StringEqualEPKcS2_i.exit

_ZN8tinyxml27XMLUtil11StringEqualEPKcS2_i.exit:   ; preds = %.lr.ph
  %7 = tail call i32 @strncmp(ptr noundef nonnull dereferenceable(1) %5, ptr noundef nonnull dereferenceable(1) %1, i64 noundef 2147483647) #33
  %8 = icmp eq i32 %7, 0
  br i1 %8, label %_ZN8tinyxml27XMLUtil11StringEqualEPKcS2_i.exit.thread, label %9

9:                                                ; preds = %_ZN8tinyxml27XMLUtil11StringEqualEPKcS2_i.exit
  %10 = getelementptr inbounds nuw i8, ptr %.0712, i64 64
  %.07 = load ptr, ptr %10, align 8, !tbaa !103
  %.not = icmp eq ptr %.07, null
  br i1 %.not, label %_ZN8tinyxml27XMLUtil11StringEqualEPKcS2_i.exit.thread, label %.lr.ph, !llvm.loop !104

_ZN8tinyxml27XMLUtil11StringEqualEPKcS2_i.exit.thread: ; preds = %9, %_ZN8tinyxml27XMLUtil11StringEqualEPKcS2_i.exit, %.lr.ph, %2
  %.07.lcssa = phi ptr [ null, %2 ], [ %.0712, %.lr.ph ], [ %.0712, %_ZN8tinyxml27XMLUtil11StringEqualEPKcS2_i.exit ], [ null, %9 ]
  ret ptr %.07.lcssa
}